; Function Attrs: mustprogress uwtable
define void @_Z28_gmx_sel_lexer_set_exceptionPvRKNSt15__exception_ptr13exception_ptrE(ptr noundef %0, ptr nocapture noundef nonnull readonly align 8 dereferenceable(8) %1) local_unnamed_addr #0 {
  %3 = alloca %"class.std::__exception_ptr::exception_ptr", align 8
  %4 = tail call noundef ptr @_Z20_gmx_sel_yyget_extraPv(ptr noundef %0)
  %5 = getelementptr inbounds i8, ptr %4, i64 8
  call void @llvm.lifetime.start.p0(i64 8, ptr nonnull %3)
  %6 = load ptr, ptr %1, align 8
  store ptr %6, ptr %3, align 8
  %.not.i.i = icmp eq ptr %6, null
  br i1 %.not.i.i, label %_ZNSt15__exception_ptr13exception_ptrC2ERKS0_.exit.i, label %7

7:                                                ; preds = %2
  call void @_ZNSt15__exception_ptr13exception_ptr9_M_addrefEv(ptr noundef nonnull align 8 dereferenceable(8) %3) #13
  %.pre.i = load ptr, ptr %3, align 8
  br label %_ZNSt15__exception_ptr13exception_ptrC2ERKS0_.exit.i

_ZNSt15__exception_ptr13exception_ptrC2ERKS0_.exit.i: ; preds = %7, %2
  %8 = phi ptr [ null, %2 ], [ %.pre.i, %7 ]
  %9 = load ptr, ptr %5, align 8
  store ptr %9, ptr %3, align 8
  store ptr %8, ptr %5, align 8
  %.not.i2.i = icmp eq ptr %9, null
  br i1 %.not.i2.i, label %_ZNSt15__exception_ptr13exception_ptraSERKS0_.exit, label %10

10:                                               ; preds = %_ZNSt15__exception_ptr13exception_ptrC2ERKS0_.exit.i
  call void @_ZNSt15__exception_ptr13exception_ptr10_M_releaseEv(ptr noundef nonnull align 8 dereferenceable(8) %3) #13
  br label %_ZNSt15__exception_ptr13exception_ptraSERKS0_.exit

_ZNSt15__exception_ptr13exception_ptraSERKS0_.exit: ; preds = %_ZNSt15__exception_ptr13exception_ptrC2ERKS0_.exit.i, %10
  call void @llvm.lifetime.end.p0(i64 8, ptr nonnull %3)
  ret void
}